target datalayout = "e-m:e-p270:32:32-p271:32:32-p272:64:64-i64:64-i128:128-f80:128-n8:16:32:64-S128"
target triple = "x86_64-pc-linux-gnu"

%struct.Color = type { i8, i8, i8, i8 }
%struct.Vector2 = type { float, float }

; Function Attrs: nounwind uwtable
define void @DrawSplineSegmentBezierCubic(<2 x float> %0, <2 x float> %1, <2 x float> %2, <2 x float> %3, float noundef %4, i32 %5) #0 {
  %7 = alloca %struct.Vector2, align 4
  %8 = alloca %struct.Vector2, align 4
  %9 = alloca %struct.Vector2, align 4
  %10 = alloca %struct.Vector2, align 4
  %11 = alloca %struct.Color, align 1
  %12 = alloca float, align 4
  %13 = alloca float, align 4
  %14 = alloca %struct.Vector2, align 4
  %15 = alloca %struct.Vector2, align 4
  %16 = alloca float, align 4
  %17 = alloca [50 x %struct.Vector2], align 16
  %18 = alloca i32, align 4
  %19 = alloca float, align 4
  %20 = alloca float, align 4
  %21 = alloca float, align 4
  %22 = alloca float, align 4
  %23 = alloca float, align 4
  %24 = alloca float, align 4
  %25 = alloca float, align 4
  store <2 x float> %0, ptr %7, align 4
  store <2 x float> %1, ptr %8, align 4
  store <2 x float> %2, ptr %9, align 4
  store <2 x float> %3, ptr %10, align 4
  store i32 %5, ptr %11, align 1
  store float %4, ptr %12, align 4
  call void @llvm.lifetime.start.p0(i64 4, ptr %13) #8
  store float 0x3FA5555560000000, ptr %13, align 4
  call void @llvm.lifetime.start.p0(i64 8, ptr %14) #8
  call void @llvm.memcpy.p0.p0.i64(ptr align 4 %14, ptr align 4 %7, i64 8, i1 false)
  call void @llvm.lifetime.start.p0(i64 8, ptr %15) #8
  call void @llvm.memset.p0.i64(ptr align 4 %15, i8 0, i64 8, i1 false)
  call void @llvm.lifetime.start.p0(i64 4, ptr %16) #8
  store float 0.000000e+00, ptr %16, align 4
  call void @llvm.lifetime.start.p0(i64 400, ptr %17) #8
  call void @llvm.memset.p0.i64(ptr align 16 %17, i8 0, i64 400, i1 false)
  call void @llvm.lifetime.start.p0(i64 4, ptr %18) #8
  store i32 1, ptr %18, align 4
  br label %26

26:                                               ; preds = %183, %6
  %27 = load i32, ptr %18, align 4
  %28 = icmp sle i32 %27, 24
  br i1 %28, label %30, label %29

29:                                               ; preds = %26
  call void @llvm.lifetime.end.p0(i64 4, ptr %18) #8
  br label %186

30:                                               ; preds = %26
  %31 = load i32, ptr %18, align 4
  %32 = sitofp i32 %31 to float
  %33 = fmul float 0x3FA5555560000000, %32
  store float %33, ptr %16, align 4
  call void @llvm.lifetime.start.p0(i64 4, ptr %19) #8
  %34 = load float, ptr %16, align 4
  %35 = fsub float 1.000000e+00, %34
  %36 = call float @powf(float noundef %35, float noundef 3.000000e+00) #8
  store float %36, ptr %19, align 4
  call void @llvm.lifetime.start.p0(i64 4, ptr %20) #8
  %37 = load float, ptr %16, align 4
  %38 = fsub float 1.000000e+00, %37
  %39 = call float @powf(float noundef %38, float noundef 2.000000e+00) #8
  %40 = fmul float 3.000000e+00, %39
  %41 = load float, ptr %16, align 4
  %42 = fmul float %40, %41
  store float %42, ptr %20, align 4
  call void @llvm.lifetime.start.p0(i64 4, ptr %21) #8
  %43 = load float, ptr %16, align 4
  %44 = fsub float 1.000000e+00, %43
  %45 = fmul float 3.000000e+00, %44
  %46 = load float, ptr %16, align 4
  %47 = call float @powf(float noundef %46, float noundef 2.000000e+00) #8
  %48 = fmul float %45, %47
  store float %48, ptr %21, align 4
  call void @llvm.lifetime.start.p0(i64 4, ptr %22) #8
  %49 = load float, ptr %16, align 4
  %50 = call float @powf(float noundef %49, float noundef 3.000000e+00) #8
  store float %50, ptr %22, align 4
  %51 = load float, ptr %19, align 4
  %52 = getelementptr inbounds nuw %struct.Vector2, ptr %7, i32 0, i32 1
  %53 = load float, ptr %52, align 4
  %54 = load float, ptr %20, align 4
  %55 = getelementptr inbounds nuw %struct.Vector2, ptr %8, i32 0, i32 1
  %56 = load float, ptr %55, align 4
  %57 = fmul float %54, %56
  %58 = call float @llvm.fmuladd.f32(float %51, float %53, float %57)
  %59 = load float, ptr %21, align 4
  %60 = getelementptr inbounds nuw %struct.Vector2, ptr %9, i32 0, i32 1
  %61 = load float, ptr %60, align 4
  %62 = call float @llvm.fmuladd.f32(float %59, float %61, float %58)
  %63 = load float, ptr %22, align 4
  %64 = getelementptr inbounds nuw %struct.Vector2, ptr %10, i32 0, i32 1
  %65 = load float, ptr %64, align 4
  %66 = call float @llvm.fmuladd.f32(float %63, float %65, float %62)
  %67 = getelementptr inbounds nuw %struct.Vector2, ptr %15, i32 0, i32 1
  store float %66, ptr %67, align 4
  %68 = load float, ptr %19, align 4
  %69 = getelementptr inbounds nuw %struct.Vector2, ptr %7, i32 0, i32 0
  %70 = load float, ptr %69, align 4
  %71 = load float, ptr %20, align 4
  %72 = getelementptr inbounds nuw %struct.Vector2, ptr %8, i32 0, i32 0
  %73 = load float, ptr %72, align 4
  %74 = fmul float %71, %73
  %75 = call float @llvm.fmuladd.f32(float %68, float %70, float %74)
  %76 = load float, ptr %21, align 4
  %77 = getelementptr inbounds nuw %struct.Vector2, ptr %9, i32 0, i32 0
  %78 = load float, ptr %77, align 4
  %79 = call float @llvm.fmuladd.f32(float %76, float %78, float %75)
  %80 = load float, ptr %22, align 4
  %81 = getelementptr inbounds nuw %struct.Vector2, ptr %10, i32 0, i32 0
  %82 = load float, ptr %81, align 4
  %83 = call float @llvm.fmuladd.f32(float %80, float %82, float %79)
  %84 = getelementptr inbounds nuw %struct.Vector2, ptr %15, i32 0, i32 0
  store float %83, ptr %84, align 4
  call void @llvm.lifetime.start.p0(i64 4, ptr %23) #8
  %85 = getelementptr inbounds nuw %struct.Vector2, ptr %15, i32 0, i32 1
  %86 = load float, ptr %85, align 4
  %87 = getelementptr inbounds nuw %struct.Vector2, ptr %14, i32 0, i32 1
  %88 = load float, ptr %87, align 4
  %89 = fsub float %86, %88
  store float %89, ptr %23, align 4
  call void @llvm.lifetime.start.p0(i64 4, ptr %24) #8
  %90 = getelementptr inbounds nuw %struct.Vector2, ptr %15, i32 0, i32 0
  %91 = load float, ptr %90, align 4
  %92 = getelementptr inbounds nuw %struct.Vector2, ptr %14, i32 0, i32 0
  %93 = load float, ptr %92, align 4
  %94 = fsub float %91, %93
  store float %94, ptr %24, align 4
  call void @llvm.lifetime.start.p0(i64 4, ptr %25) #8
  %95 = load float, ptr %12, align 4
  %96 = fmul float 5.000000e-01, %95
  %97 = load float, ptr %24, align 4
  %98 = load float, ptr %24, align 4
  %99 = load float, ptr %23, align 4
  %100 = load float, ptr %23, align 4
  %101 = fmul float %99, %100
  %102 = call float @llvm.fmuladd.f32(float %97, float %98, float %101)
  %103 = call float @sqrtf(float noundef %102) #8
  %104 = fdiv float %96, %103
  store float %104, ptr %25, align 4
  %105 = load i32, ptr %18, align 4
  %106 = icmp eq i32 %105, 1
  br i1 %106, label %107, label %138

107:                                              ; preds = %30
  %108 = getelementptr inbounds nuw %struct.Vector2, ptr %14, i32 0, i32 0
  %109 = load float, ptr %108, align 4
  %110 = load float, ptr %23, align 4
  %111 = load float, ptr %25, align 4
  %112 = call float @llvm.fmuladd.f32(float %110, float %111, float %109)
  %113 = getelementptr inbounds [50 x %struct.Vector2], ptr %17, i64 0, i64 0
  %114 = getelementptr inbounds nuw %struct.Vector2, ptr %113, i32 0, i32 0
  store float %112, ptr %114, align 16
  %115 = getelementptr inbounds nuw %struct.Vector2, ptr %14, i32 0, i32 1
  %116 = load float, ptr %115, align 4
  %117 = load float, ptr %24, align 4
  %118 = load float, ptr %25, align 4
  %119 = fneg float %117
  %120 = call float @llvm.fmuladd.f32(float %119, float %118, float %116)
  %121 = getelementptr inbounds [50 x %struct.Vector2], ptr %17, i64 0, i64 0
  %122 = getelementptr inbounds nuw %struct.Vector2, ptr %121, i32 0, i32 1
  store float %120, ptr %122, align 4
  %123 = getelementptr inbounds nuw %struct.Vector2, ptr %14, i32 0, i32 0
  %124 = load float, ptr %123, align 4
  %125 = load float, ptr %23, align 4
  %126 = load float, ptr %25, align 4
  %127 = fneg float %125
  %128 = call float @llvm.fmuladd.f32(float %127, float %126, float %124)
  %129 = getelementptr inbounds [50 x %struct.Vector2], ptr %17, i64 0, i64 1
  %130 = getelementptr inbounds nuw %struct.Vector2, ptr %129, i32 0, i32 0
  store float %128, ptr %130, align 8
  %131 = getelementptr inbounds nuw %struct.Vector2, ptr %14, i32 0, i32 1
  %132 = load float, ptr %131, align 4
  %133 = load float, ptr %24, align 4
  %134 = load float, ptr %25, align 4
  %135 = call float @llvm.fmuladd.f32(float %133, float %134, float %132)
  %136 = getelementptr inbounds [50 x %struct.Vector2], ptr %17, i64 0, i64 1
  %137 = getelementptr inbounds nuw %struct.Vector2, ptr %136, i32 0, i32 1
  store float %135, ptr %137, align 4
  br label %138

138:                                              ; preds = %107, %30
  %139 = getelementptr inbounds nuw %struct.Vector2, ptr %15, i32 0, i32 0
  %140 = load float, ptr %139, align 4
  %141 = load float, ptr %23, align 4
  %142 = load float, ptr %25, align 4
  %143 = fneg float %141
  %144 = call float @llvm.fmuladd.f32(float %143, float %142, float %140)
  %145 = load i32, ptr %18, align 4
  %146 = mul nsw i32 2, %145
  %147 = add nsw i32 %146, 1
  %148 = sext i32 %147 to i64
  %149 = getelementptr inbounds [50 x %struct.Vector2], ptr %17, i64 0, i64 %148
  %150 = getelementptr inbounds nuw %struct.Vector2, ptr %149, i32 0, i32 0
  store float %144, ptr %150, align 8
  %151 = getelementptr inbounds nuw %struct.Vector2, ptr %15, i32 0, i32 1
  %152 = load float, ptr %151, align 4
  %153 = load float, ptr %24, align 4
  %154 = load float, ptr %25, align 4
  %155 = call float @llvm.fmuladd.f32(float %153, float %154, float %152)
  %156 = load i32, ptr %18, align 4
  %157 = mul nsw i32 2, %156
  %158 = add nsw i32 %157, 1
  %159 = sext i32 %158 to i64
  %160 = getelementptr inbounds [50 x %struct.Vector2], ptr %17, i64 0, i64 %159
  %161 = getelementptr inbounds nuw %struct.Vector2, ptr %160, i32 0, i32 1
  store float %155, ptr %161, align 4
  %162 = getelementptr inbounds nuw %struct.Vector2, ptr %15, i32 0, i32 0
  %163 = load float, ptr %162, align 4
  %164 = load float, ptr %23, align 4
  %165 = load float, ptr %25, align 4
  %166 = call float @llvm.fmuladd.f32(float %164, float %165, float %163)
  %167 = load i32, ptr %18, align 4
  %168 = mul nsw i32 2, %167
  %169 = sext i32 %168 to i64
  %170 = getelementptr inbounds [50 x %struct.Vector2], ptr %17, i64 0, i64 %169
  %171 = getelementptr inbounds nuw %struct.Vector2, ptr %170, i32 0, i32 0
  store float %166, ptr %171, align 8
  %172 = getelementptr inbounds nuw %struct.Vector2, ptr %15, i32 0, i32 1
  %173 = load float, ptr %172, align 4
  %174 = load float, ptr %24, align 4
  %175 = load float, ptr %25, align 4
  %176 = fneg float %174
  %177 = call float @llvm.fmuladd.f32(float %176, float %175, float %173)
  %178 = load i32, ptr %18, align 4
  %179 = mul nsw i32 2, %178
  %180 = sext i32 %179 to i64
  %181 = getelementptr inbounds [50 x %struct.Vector2], ptr %17, i64 0, i64 %180
  %182 = getelementptr inbounds nuw %struct.Vector2, ptr %181, i32 0, i32 1
  store float %177, ptr %182, align 4
  call void @llvm.memcpy.p0.p0.i64(ptr align 4 %14, ptr align 4 %15, i64 8, i1 false)
  call void @llvm.lifetime.end.p0(i64 4, ptr %25) #8
  call void @llvm.lifetime.end.p0(i64 4, ptr %24) #8
  call void @llvm.lifetime.end.p0(i64 4, ptr %23) #8
  call void @llvm.lifetime.end.p0(i64 4, ptr %22) #8
  call void @llvm.lifetime.end.p0(i64 4, ptr %21) #8
  call void @llvm.lifetime.end.p0(i64 4, ptr %20) #8
  call void @llvm.lifetime.end.p0(i64 4, ptr %19) #8
  br label %183

183:                                              ; preds = %138
  %184 = load i32, ptr %18, align 4
  %185 = add nsw i32 %184, 1
  store i32 %185, ptr %18, align 4
  br label %26

186:                                              ; preds = %29
  %187 = getelementptr inbounds [50 x %struct.Vector2], ptr %17, i64 0, i64 0
  %188 = load i32, ptr %11, align 1
  call void @DrawTriangleStrip(ptr noundef %187, i32 noundef 50, i32 %188)
  call void @llvm.lifetime.end.p0(i64 400, ptr %17) #8
  call void @llvm.lifetime.end.p0(i64 4, ptr %16) #8
  call void @llvm.lifetime.end.p0(i64 8, ptr %15) #8
  call void @llvm.lifetime.end.p0(i64 8, ptr %14) #8
  call void @llvm.lifetime.end.p0(i64 4, ptr %13) #8
  ret void
}