; Function Attrs: nounwind uwtable
define void @DrawSplineSegmentBezierCubic(<2 x float> %0, <2 x float> %1, <2 x float> %2, <2 x float> %3, float noundef %4, i32 %5) local_unnamed_addr #4 {
  %7 = alloca [50 x %struct.Vector2], align 16
  %.sroa.055.0.vec.extract57 = extractelement <2 x float> %0, i64 0
  %.sroa.055.4.vec.extract59 = extractelement <2 x float> %0, i64 1
  call void @llvm.lifetime.start.p0(i64 400, ptr nonnull %7) #16
  %8 = getelementptr inbounds nuw i8, ptr %7, i64 16
  call void @llvm.memset.p0.i64(ptr noundef nonnull align 16 dereferenceable(400) %8, i8 0, i64 384, i1 false)
  %.sroa.054.4.vec.extract = extractelement <2 x float> %1, i64 1
  %.sroa.053.4.vec.extract = extractelement <2 x float> %2, i64 1
  %.sroa.052.4.vec.extract = extractelement <2 x float> %3, i64 1
  %.sroa.054.0.vec.extract = extractelement <2 x float> %1, i64 0
  %.sroa.053.0.vec.extract = extractelement <2 x float> %2, i64 0
  %.sroa.052.0.vec.extract = extractelement <2 x float> %3, i64 0
  %9 = fmul float %4, 5.000000e-01
  br label %14

10:                                               ; preds = %50
  %11 = getelementptr inbounds nuw i8, ptr %7, i64 12
  %12 = getelementptr inbounds nuw i8, ptr %7, i64 8
  %13 = getelementptr inbounds nuw i8, ptr %7, i64 4
  store float %53, ptr %13, align 4
  store float %52, ptr %12, align 8
  store float %51, ptr %11, align 4
  store float %54, ptr %7, align 16
  call void @DrawTriangleStrip(ptr noundef nonnull %7, i32 noundef 50, i32 %5)
  call void @llvm.lifetime.end.p0(i64 400, ptr nonnull %7) #16
  ret void

14:                                               ; preds = %6, %50
  %indvars.iv = phi i64 [ 1, %6 ], [ %indvars.iv.next, %50 ]
  %15 = phi float [ 0.000000e+00, %6 ], [ %51, %50 ]
  %16 = phi float [ 0.000000e+00, %6 ], [ %52, %50 ]
  %17 = phi float [ 0.000000e+00, %6 ], [ %53, %50 ]
  %.sroa.7.063 = phi float [ %.sroa.055.4.vec.extract59, %6 ], [ %32, %50 ]
  %.sroa.045.062 = phi float [ %.sroa.055.0.vec.extract57, %6 ], [ %36, %50 ]
  %18 = phi float [ 0.000000e+00, %6 ], [ %54, %50 ]
  %19 = trunc nuw nsw i64 %indvars.iv to i32
  %20 = uitofp nneg i32 %19 to float
  %21 = fmul float %20, 0x3FA5555560000000
  %22 = fsub float 1.000000e+00, %21
  %23 = tail call float @powf(float noundef %22, float noundef 3.000000e+00) #16
  %square = fmul float %22, %22
  %24 = fmul float %square, 3.000000e+00
  %25 = fmul float %21, %24
  %26 = fmul float %22, 3.000000e+00
  %square60 = fmul float %21, %21
  %27 = fmul float %square60, %26
  %28 = tail call float @powf(float noundef %21, float noundef 3.000000e+00) #16
  %29 = fmul float %.sroa.054.4.vec.extract, %25
  %30 = tail call float @llvm.fmuladd.f32(float %23, float %.sroa.055.4.vec.extract59, float %29)
  %31 = tail call float @llvm.fmuladd.f32(float %27, float %.sroa.053.4.vec.extract, float %30)
  %32 = tail call float @llvm.fmuladd.f32(float %28, float %.sroa.052.4.vec.extract, float %31)
  %33 = fmul float %.sroa.054.0.vec.extract, %25
  %34 = tail call float @llvm.fmuladd.f32(float %23, float %.sroa.055.0.vec.extract57, float %33)
  %35 = tail call float @llvm.fmuladd.f32(float %27, float %.sroa.053.0.vec.extract, float %34)
  %36 = tail call float @llvm.fmuladd.f32(float %28, float %.sroa.052.0.vec.extract, float %35)
  %37 = fsub float %32, %.sroa.7.063
  %38 = fsub float %36, %.sroa.045.062
  %39 = fmul float %37, %37
  %40 = tail call float @llvm.fmuladd.f32(float %38, float %38, float %39)
  %sqrt = tail call float @llvm.sqrt.f32(float %40)
  %41 = fdiv float %9, %sqrt
  %42 = icmp eq i64 %indvars.iv, 1
  %43 = fneg float %38
  br i1 %42, label %44, label %._crit_edge

._crit_edge:                                      ; preds = %14
  %.pre = fneg float %37
  br label %50

44:                                               ; preds = %14
  %45 = tail call float @llvm.fmuladd.f32(float %37, float %41, float %.sroa.045.062)
  %46 = tail call float @llvm.fmuladd.f32(float %43, float %41, float %.sroa.7.063)
  %47 = fneg float %37
  %48 = tail call float @llvm.fmuladd.f32(float %47, float %41, float %.sroa.045.062)
  %49 = tail call float @llvm.fmuladd.f32(float %38, float %41, float %.sroa.7.063)
  br label %50

50:                                               ; preds = %._crit_edge, %44
  %.pre-phi = phi float [ %.pre, %._crit_edge ], [ %47, %44 ]
  %51 = phi float [ %15, %._crit_edge ], [ %49, %44 ]
  %52 = phi float [ %16, %._crit_edge ], [ %48, %44 ]
  %53 = phi float [ %17, %._crit_edge ], [ %46, %44 ]
  %54 = phi float [ %18, %._crit_edge ], [ %45, %44 ]
  %55 = tail call float @llvm.fmuladd.f32(float %.pre-phi, float %41, float %36)
  %56 = shl nuw nsw i64 %indvars.iv, 1
  %57 = or disjoint i64 %56, 1
  %58 = getelementptr inbounds nuw [50 x %struct.Vector2], ptr %7, i64 0, i64 %57
  store float %55, ptr %58, align 8
  %59 = tail call float @llvm.fmuladd.f32(float %38, float %41, float %32)
  %60 = getelementptr inbounds nuw i8, ptr %58, i64 4
  store float %59, ptr %60, align 4
  %61 = tail call float @llvm.fmuladd.f32(float %37, float %41, float %36)
  %62 = getelementptr inbounds nuw [50 x %struct.Vector2], ptr %7, i64 0, i64 %56
  store float %61, ptr %62, align 16
  %63 = tail call float @llvm.fmuladd.f32(float %43, float %41, float %32)
  %64 = getelementptr inbounds nuw i8, ptr %62, i64 4
  store float %63, ptr %64, align 4
  %indvars.iv.next = add nuw nsw i64 %indvars.iv, 1
  %exitcond.not = icmp eq i64 %indvars.iv.next, 25
  br i1 %exitcond.not, label %10, label %14
}